target datalayout = "e-m:e-p270:32:32-p271:32:32-p272:64:64-i64:64-i128:128-f80:128-n8:16:32:64-S128"
target triple = "x86_64-pc-linux-gnu"

%struct.ffc_params_st = type { ptr, ptr, ptr, ptr, ptr, i64, i32, i32, i32, i32, i32, ptr, ptr, i32 }

@.str.9 = private unnamed_addr constant [36 x i8] c"../openssl/test/ffc_internal_test.c\00", align 1
@.str.66 = private unnamed_addr constant [34 x i8] c"dh = DH_new_by_nid(NID_ffdhe3072)\00", align 1
@.str.67 = private unnamed_addr constant [18 x i8] c"params->keylength\00", align 1
@.str.68 = private unnamed_addr constant [4 x i8] c"275\00", align 1
@.str.69 = private unnamed_addr constant [36 x i8] c"ossl_ffc_params_copy(&copy, params)\00", align 1
@.str.70 = private unnamed_addr constant [15 x i8] c"copy.keylength\00", align 1
@.str.71 = private unnamed_addr constant [38 x i8] c"ossl_ffc_params_cmp(&copy, params, 0)\00", align 1

; Function Attrs: nounwind uwtable
define internal i32 @ffc_params_copy_test() #0 {
  %1 = alloca i32, align 4
  %2 = alloca ptr, align 8
  %3 = alloca ptr, align 8
  %4 = alloca %struct.ffc_params_st, align 8
  call void @llvm.lifetime.start.p0(i64 4, ptr %1) #3
  store i32 0, ptr %1, align 4, !tbaa !4
  call void @llvm.lifetime.start.p0(i64 8, ptr %2) #3
  store ptr null, ptr %2, align 8, !tbaa !17
  call void @llvm.lifetime.start.p0(i64 8, ptr %3) #3
  call void @llvm.lifetime.start.p0(i64 96, ptr %4) #3
  call void @ossl_ffc_params_init(ptr noundef %4)
  %5 = call ptr @DH_new_by_nid(i32 noundef 1127)
  store ptr %5, ptr %2, align 8, !tbaa !17
  %6 = call i32 @test_ptr(ptr noundef @.str.9, i32 noundef 671, ptr noundef @.str.66, ptr noundef %5)
  %7 = icmp ne i32 %6, 0
  br i1 %7, label %9, label %8

8:                                                ; preds = %0
  br label %41

9:                                                ; preds = %0
  %10 = load ptr, ptr %2, align 8, !tbaa !17
  %11 = call ptr @ossl_dh_get0_params(ptr noundef %10)
  store ptr %11, ptr %3, align 8, !tbaa !19
  %12 = load ptr, ptr %3, align 8, !tbaa !19
  %13 = getelementptr inbounds nuw %struct.ffc_params_st, ptr %12, i32 0, i32 13
  %14 = load i32, ptr %13, align 8, !tbaa !25
  %15 = call i32 @test_int_eq(ptr noundef @.str.9, i32 noundef 675, ptr noundef @.str.67, ptr noundef @.str.68, i32 noundef %14, i32 noundef 275)
  %16 = icmp ne i32 %15, 0
  br i1 %16, label %18, label %17

17:                                               ; preds = %9
  br label %41

18:                                               ; preds = %9
  %19 = load ptr, ptr %3, align 8, !tbaa !19
  %20 = call i32 @ossl_ffc_params_copy(ptr noundef %4, ptr noundef %19)
  %21 = icmp ne i32 %20, 0
  %22 = zext i1 %21 to i32
  %23 = call i32 @test_true(ptr noundef @.str.9, i32 noundef 678, ptr noundef @.str.69, i32 noundef %22)
  %24 = icmp ne i32 %23, 0
  br i1 %24, label %26, label %25

25:                                               ; preds = %18
  br label %41

26:                                               ; preds = %18
  %27 = getelementptr inbounds nuw %struct.ffc_params_st, ptr %4, i32 0, i32 13
  %28 = load i32, ptr %27, align 8, !tbaa !25
  %29 = call i32 @test_int_eq(ptr noundef @.str.9, i32 noundef 681, ptr noundef @.str.70, ptr noundef @.str.68, i32 noundef %28, i32 noundef 275)
  %30 = icmp ne i32 %29, 0
  br i1 %30, label %32, label %31

31:                                               ; preds = %26
  br label %41

32:                                               ; preds = %26
  %33 = load ptr, ptr %3, align 8, !tbaa !19
  %34 = call i32 @ossl_ffc_params_cmp(ptr noundef %4, ptr noundef %33, i32 noundef 0)
  %35 = icmp ne i32 %34, 0
  %36 = zext i1 %35 to i32
  %37 = call i32 @test_true(ptr noundef @.str.9, i32 noundef 684, ptr noundef @.str.71, i32 noundef %36)
  %38 = icmp ne i32 %37, 0
  br i1 %38, label %40, label %39

39:                                               ; preds = %32
  br label %41

40:                                               ; preds = %32
  store i32 1, ptr %1, align 4, !tbaa !4
  br label %41

41:                                               ; preds = %40, %39, %31, %25, %17, %8
  call void @ossl_ffc_params_cleanup(ptr noundef %4)
  %42 = load ptr, ptr %2, align 8, !tbaa !17
  call void @DH_free(ptr noundef %42)
  %43 = load i32, ptr %1, align 4, !tbaa !4
  call void @llvm.lifetime.end.p0(i64 96, ptr %4) #3
  call void @llvm.lifetime.end.p0(i64 8, ptr %3) #3
  call void @llvm.lifetime.end.p0(i64 8, ptr %2) #3
  call void @llvm.lifetime.end.p0(i64 4, ptr %1) #3
  ret i32 %43
}