; Function Attrs: nounwind uwtable
define internal range(i32 0, 2) i32 @ffc_params_copy_test() #0 {
  %1 = alloca %struct.ffc_params_st, align 8
  call void @llvm.lifetime.start.p0(i64 96, ptr nonnull %1) #3
  call void @ossl_ffc_params_init(ptr noundef nonnull %1) #3
  %2 = call ptr @DH_new_by_nid(i32 noundef 1127) #3
  %3 = call i32 @test_ptr(ptr noundef nonnull @.str.9, i32 noundef 671, ptr noundef nonnull @.str.66, ptr noundef %2) #3
  %.not = icmp eq i32 %3, 0
  br i1 %.not, label %23, label %4

4:                                                ; preds = %0
  %5 = call ptr @ossl_dh_get0_params(ptr noundef %2) #3
  %6 = getelementptr inbounds nuw i8, ptr %5, i64 88
  %7 = load i32, ptr %6, align 8, !tbaa !18
  %8 = call i32 @test_int_eq(ptr noundef nonnull @.str.9, i32 noundef 675, ptr noundef nonnull @.str.67, ptr noundef nonnull @.str.68, i32 noundef %7, i32 noundef 275) #3
  %.not5 = icmp eq i32 %8, 0
  br i1 %.not5, label %23, label %9

9:                                                ; preds = %4
  %10 = call i32 @ossl_ffc_params_copy(ptr noundef nonnull %1, ptr noundef nonnull %5) #3
  %11 = icmp ne i32 %10, 0
  %12 = zext i1 %11 to i32
  %13 = call i32 @test_true(ptr noundef nonnull @.str.9, i32 noundef 678, ptr noundef nonnull @.str.69, i32 noundef %12) #3
  %.not6 = icmp eq i32 %13, 0
  br i1 %.not6, label %23, label %14

14:                                               ; preds = %9
  %15 = getelementptr inbounds nuw i8, ptr %1, i64 88
  %16 = load i32, ptr %15, align 8, !tbaa !18
  %17 = call i32 @test_int_eq(ptr noundef nonnull @.str.9, i32 noundef 681, ptr noundef nonnull @.str.70, ptr noundef nonnull @.str.68, i32 noundef %16, i32 noundef 275) #3
  %.not7 = icmp eq i32 %17, 0
  br i1 %.not7, label %23, label %18

18:                                               ; preds = %14
  %19 = call i32 @ossl_ffc_params_cmp(ptr noundef nonnull %1, ptr noundef nonnull %5, i32 noundef 0) #3
  %20 = icmp ne i32 %19, 0
  %21 = zext i1 %20 to i32
  %22 = call i32 @test_true(ptr noundef nonnull @.str.9, i32 noundef 684, ptr noundef nonnull @.str.71, i32 noundef %21) #3
  %.not8 = icmp ne i32 %22, 0
  %spec.select = zext i1 %.not8 to i32
  br label %23

23:                                               ; preds = %18, %14, %9, %4, %0
  %.0 = phi i32 [ 0, %14 ], [ 0, %9 ], [ 0, %4 ], [ 0, %0 ], [ %spec.select, %18 ]
  call void @ossl_ffc_params_cleanup(ptr noundef nonnull %1) #3
  call void @DH_free(ptr noundef %2) #3
  call void @llvm.lifetime.end.p0(i64 96, ptr nonnull %1) #3
  ret i32 %.0
}